target datalayout = "e-m:e-p270:32:32-p271:32:32-p272:64:64-i64:64-i128:128-f80:128-n8:16:32:64-S128"
target triple = "x86_64-pc-linux-gnu"

%struct.DdNode = type { i32, i32, ptr, %union.anon.1, i64 }
%union.anon.1 = type { %struct.DdChildren }
%struct.DdChildren = type { ptr, ptr }

; Function Attrs: nounwind uwtable
define ptr @Abc_NtkBddFindAddConst(ptr noundef %0, ptr noundef %1, i32 noundef %2) #0 {
  %4 = alloca ptr, align 8
  %5 = alloca ptr, align 8
  %6 = alloca i32, align 4
  %7 = alloca i32, align 4
  %8 = alloca i32, align 4
  %9 = alloca ptr, align 8
  %10 = alloca ptr, align 8
  %11 = alloca ptr, align 8
  %12 = alloca ptr, align 8
  store ptr %0, ptr %4, align 8
  store ptr %1, ptr %5, align 8
  store i32 %2, ptr %6, align 4
  store i32 0, ptr %8, align 4
  %13 = load ptr, ptr %4, align 8
  %14 = call ptr @Cudd_ReadLogicZero(ptr noundef %13)
  store ptr %14, ptr %11, align 8
  %15 = load ptr, ptr %4, align 8
  %16 = call ptr @Cudd_ReadOne(ptr noundef %15)
  store ptr %16, ptr %12, align 8
  store i32 0, ptr %7, align 4
  br label %17

17:                                               ; preds = %76, %3
  %18 = load i32, ptr %7, align 4
  %19 = load i32, ptr %6, align 4
  %20 = icmp slt i32 %18, %19
  br i1 %20, label %21, label %79

21:                                               ; preds = %17
  %22 = load ptr, ptr %5, align 8
  %23 = ptrtoint ptr %22 to i64
  %24 = and i64 %23, 1
  %25 = trunc i64 %24 to i32
  %26 = icmp ne i32 %25, 0
  br i1 %26, label %27, label %48

27:                                               ; preds = %21
  %28 = load ptr, ptr %5, align 8
  %29 = ptrtoint ptr %28 to i64
  %30 = and i64 %29, -2
  %31 = inttoptr i64 %30 to ptr
  %32 = getelementptr inbounds %struct.DdNode, ptr %31, i32 0, i32 3
  %33 = getelementptr inbounds %struct.DdChildren, ptr %32, i32 0, i32 1
  %34 = load ptr, ptr %33, align 8
  %35 = ptrtoint ptr %34 to i64
  %36 = xor i64 %35, 1
  %37 = inttoptr i64 %36 to ptr
  store ptr %37, ptr %9, align 8
  %38 = load ptr, ptr %5, align 8
  %39 = ptrtoint ptr %38 to i64
  %40 = and i64 %39, -2
  %41 = inttoptr i64 %40 to ptr
  %42 = getelementptr inbounds %struct.DdNode, ptr %41, i32 0, i32 3
  %43 = getelementptr inbounds %struct.DdChildren, ptr %42, i32 0, i32 0
  %44 = load ptr, ptr %43, align 8
  %45 = ptrtoint ptr %44 to i64
  %46 = xor i64 %45, 1
  %47 = inttoptr i64 %46 to ptr
  store ptr %47, ptr %10, align 8
  br label %63

48:                                               ; preds = %21
  %49 = load ptr, ptr %5, align 8
  %50 = ptrtoint ptr %49 to i64
  %51 = and i64 %50, -2
  %52 = inttoptr i64 %51 to ptr
  %53 = getelementptr inbounds %struct.DdNode, ptr %52, i32 0, i32 3
  %54 = getelementptr inbounds %struct.DdChildren, ptr %53, i32 0, i32 1
  %55 = load ptr, ptr %54, align 8
  store ptr %55, ptr %9, align 8
  %56 = load ptr, ptr %5, align 8
  %57 = ptrtoint ptr %56 to i64
  %58 = and i64 %57, -2
  %59 = inttoptr i64 %58 to ptr
  %60 = getelementptr inbounds %struct.DdNode, ptr %59, i32 0, i32 3
  %61 = getelementptr inbounds %struct.DdChildren, ptr %60, i32 0, i32 0
  %62 = load ptr, ptr %61, align 8
  store ptr %62, ptr %10, align 8
  br label %63

63:                                               ; preds = %48, %27
  %64 = load ptr, ptr %9, align 8
  %65 = load ptr, ptr %11, align 8
  %66 = icmp eq ptr %64, %65
  br i1 %66, label %67, label %73

67:                                               ; preds = %63
  %68 = load i32, ptr %7, align 4
  %69 = shl i32 1, %68
  %70 = load i32, ptr %8, align 4
  %71 = xor i32 %70, %69
  store i32 %71, ptr %8, align 4
  %72 = load ptr, ptr %10, align 8
  store ptr %72, ptr %5, align 8
  br label %75

73:                                               ; preds = %63
  %74 = load ptr, ptr %9, align 8
  store ptr %74, ptr %5, align 8
  br label %75

75:                                               ; preds = %73, %67
  br label %76

76:                                               ; preds = %75
  %77 = load i32, ptr %7, align 4
  %78 = add nsw i32 %77, 1
  store i32 %78, ptr %7, align 4
  br label %17, !llvm.loop !47

79:                                               ; preds = %17
  %80 = load ptr, ptr %4, align 8
  %81 = load i32, ptr %8, align 4
  %82 = sitofp i32 %81 to double
  %83 = call ptr @Cudd_addConst(ptr noundef %80, double noundef %82)
  ret ptr %83
}