; Function Attrs: nounwind uwtable
define ptr @Abc_NtkBddFindAddConst(ptr noundef %0, ptr noundef %1, i32 noundef %2) local_unnamed_addr #0 {
  %4 = tail call ptr @Cudd_ReadLogicZero(ptr noundef %0) #18
  %5 = tail call ptr @Cudd_ReadOne(ptr noundef %0) #18
  %6 = icmp sgt i32 %2, 0
  br i1 %6, label %.lr.ph, label %._crit_edge

.lr.ph:                                           ; preds = %3, %27
  %.024 = phi ptr [ %.1, %27 ], [ %1, %3 ]
  %.01723 = phi i32 [ %31, %27 ], [ 0, %3 ]
  %.02022 = phi i32 [ %.121, %27 ], [ 0, %3 ]
  %7 = ptrtoint ptr %.024 to i64
  %8 = and i64 %7, 1
  %.not = icmp eq i64 %8, 0
  br i1 %.not, label %22, label %9

9:                                                ; preds = %.lr.ph
  %10 = and i64 %7, -2
  %11 = inttoptr i64 %10 to ptr
  %12 = getelementptr inbounds nuw i8, ptr %11, i64 16
  %13 = getelementptr inbounds nuw i8, ptr %11, i64 24
  %14 = load ptr, ptr %13, align 8
  %15 = ptrtoint ptr %14 to i64
  %16 = xor i64 %15, 1
  %17 = inttoptr i64 %16 to ptr
  %18 = load ptr, ptr %12, align 8
  %19 = ptrtoint ptr %18 to i64
  %20 = xor i64 %19, 1
  %21 = inttoptr i64 %20 to ptr
  br label %27

22:                                               ; preds = %.lr.ph
  %23 = getelementptr inbounds nuw i8, ptr %.024, i64 16
  %24 = getelementptr inbounds nuw i8, ptr %.024, i64 24
  %25 = load ptr, ptr %24, align 8
  %26 = load ptr, ptr %23, align 8
  br label %27

27:                                               ; preds = %22, %9
  %.019 = phi ptr [ %17, %9 ], [ %25, %22 ]
  %.018 = phi ptr [ %21, %9 ], [ %26, %22 ]
  %28 = icmp eq ptr %.019, %4
  %29 = shl nuw i32 1, %.01723
  %30 = select i1 %28, i32 %29, i32 0
  %.121 = xor i32 %30, %.02022
  %.1 = select i1 %28, ptr %.018, ptr %.019
  %31 = add nuw nsw i32 %.01723, 1
  %exitcond.not = icmp eq i32 %31, %2
  br i1 %exitcond.not, label %._crit_edge.loopexit, label %.lr.ph, !llvm.loop !43

._crit_edge.loopexit:                             ; preds = %27
  %32 = sitofp i32 %.121 to double
  br label %._crit_edge

._crit_edge:                                      ; preds = %._crit_edge.loopexit, %3
  %.020.lcssa = phi double [ 0.000000e+00, %3 ], [ %32, %._crit_edge.loopexit ]
  %33 = tail call ptr @Cudd_addConst(ptr noundef %0, double noundef %.020.lcssa) #18
  ret ptr %33
}